target datalayout = "e-m:e-p270:32:32-p271:32:32-p272:64:64-i64:64-i128:128-f80:128-n8:16:32:64-S128"
target triple = "x86_64-pc-linux-gnu"

%union.LWLockPadded = type { %struct.LWLock, [112 x i8] }
%struct.LWLock = type { i16, %struct.pg_atomic_uint32, %struct.proclist_head }
%struct.pg_atomic_uint32 = type { i32 }
%struct.proclist_head = type { i32, i32 }
%struct.MultiXactStateData = type { i32, i32, i8, i32, i32, i32, i8, i32, i32, i32, i32, i32, %struct.ConditionVariable, [0 x i32] }
%struct.ConditionVariable = type { i8, %struct.proclist_head }

@MainLWLockArray = external global ptr, align 8
@MultiXactState = internal global ptr null, align 8
@autovacuum_multixact_freeze_max_age = external global i32, align 4

; Function Attrs: nounwind uwtable
define internal zeroext i1 @ReadMultiXactCounts(ptr noundef %0, ptr noundef %1) #0 {
  %3 = alloca i1, align 1
  %4 = alloca ptr, align 8
  %5 = alloca ptr, align 8
  %6 = alloca i32, align 4
  %7 = alloca i32, align 4
  %8 = alloca i32, align 4
  %9 = alloca i32, align 4
  %10 = alloca i8, align 1
  %11 = alloca i32, align 4
  store ptr %0, ptr %4, align 8
  store ptr %1, ptr %5, align 8
  call void @llvm.lifetime.start.p0(i64 4, ptr %6) #9
  call void @llvm.lifetime.start.p0(i64 4, ptr %7) #9
  call void @llvm.lifetime.start.p0(i64 4, ptr %8) #9
  call void @llvm.lifetime.start.p0(i64 4, ptr %9) #9
  call void @llvm.lifetime.start.p0(i64 1, ptr %10) #9
  %12 = load ptr, ptr @MainLWLockArray, align 8
  %13 = getelementptr inbounds %union.LWLockPadded, ptr %12, i64 13
  %14 = call zeroext i1 @LWLockAcquire(ptr noundef %13, i32 noundef 1)
  %15 = load ptr, ptr @MultiXactState, align 8
  %16 = getelementptr inbounds nuw %struct.MultiXactStateData, ptr %15, i32 0, i32 1
  %17 = load i32, ptr %16, align 4
  store i32 %17, ptr %6, align 4
  %18 = load ptr, ptr @MultiXactState, align 8
  %19 = getelementptr inbounds nuw %struct.MultiXactStateData, ptr %18, i32 0, i32 3
  %20 = load i32, ptr %19, align 4
  store i32 %20, ptr %8, align 4
  %21 = load ptr, ptr @MultiXactState, align 8
  %22 = getelementptr inbounds nuw %struct.MultiXactStateData, ptr %21, i32 0, i32 0
  %23 = load i32, ptr %22, align 4
  store i32 %23, ptr %9, align 4
  %24 = load ptr, ptr @MultiXactState, align 8
  %25 = getelementptr inbounds nuw %struct.MultiXactStateData, ptr %24, i32 0, i32 5
  %26 = load i32, ptr %25, align 4
  store i32 %26, ptr %7, align 4
  %27 = load ptr, ptr @MultiXactState, align 8
  %28 = getelementptr inbounds nuw %struct.MultiXactStateData, ptr %27, i32 0, i32 6
  %29 = load i8, ptr %28, align 4, !range !4, !noundef !5
  %30 = trunc i8 %29 to i1
  %31 = zext i1 %30 to i8
  store i8 %31, ptr %10, align 1
  %32 = load ptr, ptr @MainLWLockArray, align 8
  %33 = getelementptr inbounds %union.LWLockPadded, ptr %32, i64 13
  call void @LWLockRelease(ptr noundef %33)
  %34 = load i8, ptr %10, align 1, !range !4, !noundef !5
  %35 = trunc i8 %34 to i1
  br i1 %35, label %37, label %36

36:                                               ; preds = %2
  store i1 false, ptr %3, align 1
  store i32 1, ptr %11, align 4
  br label %46

37:                                               ; preds = %2
  %38 = load i32, ptr %6, align 4
  %39 = load i32, ptr %7, align 4
  %40 = sub i32 %38, %39
  %41 = load ptr, ptr %5, align 8
  store i32 %40, ptr %41, align 4
  %42 = load i32, ptr %9, align 4
  %43 = load i32, ptr %8, align 4
  %44 = sub i32 %42, %43
  %45 = load ptr, ptr %4, align 8
  store i32 %44, ptr %45, align 4
  store i1 true, ptr %3, align 1
  store i32 1, ptr %11, align 4
  br label %46

46:                                               ; preds = %37, %36
  call void @llvm.lifetime.end.p0(i64 1, ptr %10) #9
  call void @llvm.lifetime.end.p0(i64 4, ptr %9) #9
  call void @llvm.lifetime.end.p0(i64 4, ptr %8) #9
  call void @llvm.lifetime.end.p0(i64 4, ptr %7) #9
  call void @llvm.lifetime.end.p0(i64 4, ptr %6) #9
  %47 = load i1, ptr %3, align 1
  ret i1 %47
}

; Function Attrs: nounwind uwtable
define dso_local i32 @MultiXactMemberFreezeThreshold() #0 {
  %1 = alloca i32, align 4
  %2 = alloca i32, align 4
  %3 = alloca i32, align 4
  %4 = alloca i32, align 4
  %5 = alloca double, align 8
  %6 = alloca i32, align 4
  %7 = alloca i32, align 4
  call void @llvm.lifetime.start.p0(i64 4, ptr %2) #9
  call void @llvm.lifetime.start.p0(i64 4, ptr %3) #9
  call void @llvm.lifetime.start.p0(i64 4, ptr %4) #9
  call void @llvm.lifetime.start.p0(i64 8, ptr %5) #9
  call void @llvm.lifetime.start.p0(i64 4, ptr %6) #9
  %8 = call zeroext i1 @ReadMultiXactCounts(ptr noundef %3, ptr noundef %2)
  br i1 %8, label %10, label %9

9:                                                ; preds = %0
  store i32 0, ptr %1, align 4
  store i32 1, ptr %7, align 4
  br label %42

10:                                               ; preds = %0
  %11 = load i32, ptr %2, align 4
  %12 = icmp ule i32 %11, 2147483647
  br i1 %12, label %13, label %15

13:                                               ; preds = %10
  %14 = load i32, ptr @autovacuum_multixact_freeze_max_age, align 4
  store i32 %14, ptr %1, align 4
  store i32 1, ptr %7, align 4
  br label %42

15:                                               ; preds = %10
  %16 = load i32, ptr %2, align 4
  %17 = sub i32 %16, 2147483647
  %18 = uitofp i32 %17 to double
  %19 = fdiv double %18, 0x41D0000000400000
  store double %19, ptr %5, align 8
  %20 = load i32, ptr %3, align 4
  %21 = uitofp i32 %20 to double
  %22 = load double, ptr %5, align 8
  %23 = fmul double %21, %22
  %24 = fptoui double %23 to i32
  store i32 %24, ptr %4, align 4
  %25 = load i32, ptr %4, align 4
  %26 = load i32, ptr %3, align 4
  %27 = icmp ugt i32 %25, %26
  br i1 %27, label %28, label %29

28:                                               ; preds = %15
  store i32 0, ptr %1, align 4
  store i32 1, ptr %7, align 4
  br label %42

29:                                               ; preds = %15
  %30 = load i32, ptr %3, align 4
  %31 = load i32, ptr %4, align 4
  %32 = sub i32 %30, %31
  store i32 %32, ptr %6, align 4
  %33 = load i32, ptr %6, align 4
  %34 = load i32, ptr @autovacuum_multixact_freeze_max_age, align 4
  %35 = icmp slt i32 %33, %34
  br i1 %35, label %36, label %38

36:                                               ; preds = %29
  %37 = load i32, ptr %6, align 4
  br label %40

38:                                               ; preds = %29
  %39 = load i32, ptr @autovacuum_multixact_freeze_max_age, align 4
  br label %40

40:                                               ; preds = %38, %36
  %41 = phi i32 [ %37, %36 ], [ %39, %38 ]
  store i32 %41, ptr %1, align 4
  store i32 1, ptr %7, align 4
  br label %42

42:                                               ; preds = %40, %28, %13, %9
  call void @llvm.lifetime.end.p0(i64 4, ptr %6) #9
  call void @llvm.lifetime.end.p0(i64 8, ptr %5) #9
  call void @llvm.lifetime.end.p0(i64 4, ptr %4) #9
  call void @llvm.lifetime.end.p0(i64 4, ptr %3) #9
  call void @llvm.lifetime.end.p0(i64 4, ptr %2) #9
  %43 = load i32, ptr %1, align 4
  ret i32 %43
}