; Function Attrs: nounwind uwtable
define dso_local i32 @MultiXactMemberFreezeThreshold() local_unnamed_addr #0 {
  %1 = load ptr, ptr @MainLWLockArray, align 8
  %2 = getelementptr inbounds nuw i8, ptr %1, i64 1664
  %3 = tail call zeroext i1 @LWLockAcquire(ptr noundef nonnull %2, i32 noundef 1) #13
  %4 = load ptr, ptr @MultiXactState, align 8
  %5 = getelementptr inbounds nuw i8, ptr %4, i64 4
  %6 = load i32, ptr %5, align 4
  %7 = getelementptr inbounds nuw i8, ptr %4, i64 12
  %8 = load i32, ptr %7, align 4
  %9 = load i32, ptr %4, align 4
  %10 = getelementptr inbounds nuw i8, ptr %4, i64 20
  %11 = load i32, ptr %10, align 4
  %12 = getelementptr inbounds nuw i8, ptr %4, i64 24
  %13 = load i8, ptr %12, align 4, !range !7, !noundef !8
  %14 = trunc nuw i8 %13 to i1
  %15 = load ptr, ptr @MainLWLockArray, align 8
  %16 = getelementptr inbounds nuw i8, ptr %15, i64 1664
  tail call void @LWLockRelease(ptr noundef nonnull %16) #13
  br i1 %14, label %17, label %ReadMultiXactCounts.exit

17:                                               ; preds = %0
  %18 = sub i32 %6, %11
  %19 = sub i32 %9, %8
  %20 = icmp sgt i32 %18, -1
  br i1 %20, label %21, label %23

21:                                               ; preds = %17
  %22 = load i32, ptr @autovacuum_multixact_freeze_max_age, align 4
  br label %ReadMultiXactCounts.exit

23:                                               ; preds = %17
  %24 = add i32 %18, -2147483647
  %25 = uitofp i32 %24 to double
  %26 = fdiv double %25, 0x41D0000000400000
  %27 = uitofp i32 %19 to double
  %28 = fmul double %26, %27
  %29 = fptoui double %28 to i32
  %30 = icmp ult i32 %19, %29
  br i1 %30, label %ReadMultiXactCounts.exit, label %31

31:                                               ; preds = %23
  %32 = sub nuw i32 %19, %29
  %33 = load i32, ptr @autovacuum_multixact_freeze_max_age, align 4
  %34 = tail call i32 @llvm.smin.i32(i32 %32, i32 %33)
  br label %ReadMultiXactCounts.exit

ReadMultiXactCounts.exit:                         ; preds = %0, %23, %31, %21
  %.0 = phi i32 [ %22, %21 ], [ %34, %31 ], [ 0, %23 ], [ 0, %0 ]
  ret i32 %.0
}